(dp1
S'output'
p2
S"<type 'exceptions.TypeError'> expected string or buffer"
p3
sS'layer'
p4
S'/home/kunal/Documents/School/Spring/cs183/web2py/applications/TubeVote/controllers/api.py'
p5
sS'code'
p6
S'<code object <module> at 0x7fdc2407c1b0, file "/home/kunal/Documents/School/Spring/cs183/web2py/applications/TubeVote/controllers/api.py", line 1>'
p7
sS'snapshot'
p8
(dp9
sS'traceback'
p10
S'Traceback (most recent call last):\n  File "/home/kunal/Documents/School/Spring/cs183/web2py/gluon/restricted.py", line 219, in restricted\n    exec(ccode, environment)\n  File "/home/kunal/Documents/School/Spring/cs183/web2py/applications/TubeVote/controllers/api.py", line 58, in <module>\n  File "/home/kunal/Documents/School/Spring/cs183/web2py/gluon/globals.py", line 419, in <lambda>\n    self._caller = lambda f: f()\n  File "/home/kunal/Documents/School/Spring/cs183/web2py/applications/TubeVote/controllers/api.py", line 25, in get_update\n    load =json.loads(row.videos)\n  File "/usr/lib/python2.7/json/__init__.py", line 339, in loads\n    return _default_decoder.decode(s)\n  File "/usr/lib/python2.7/json/decoder.py", line 364, in decode\n    obj, end = self.raw_decode(s, idx=_w(s, 0).end())\nTypeError: expected string or buffer\n'
p11
s.