(dp1
S'output'
p2
S"<type 'exceptions.AttributeError'> 'NoneType' object has no attribute 'videos'"
p3
sS'layer'
p4
S'/home/kunal/Documents/School/Spring/cs183/web2py/applications/TubeVote/controllers/api.py'
p5
sS'code'
p6
S'<code object <module> at 0x7fdc34080d30, file "/home/kunal/Documents/School/Spring/cs183/web2py/applications/TubeVote/controllers/api.py", line 1>'
p7
sS'snapshot'
p8
(dp9
sS'traceback'
p10
S'Traceback (most recent call last):\n  File "/home/kunal/Documents/School/Spring/cs183/web2py/gluon/restricted.py", line 219, in restricted\n    exec(ccode, environment)\n  File "/home/kunal/Documents/School/Spring/cs183/web2py/applications/TubeVote/controllers/api.py", line 62, in <module>\n  File "/home/kunal/Documents/School/Spring/cs183/web2py/gluon/globals.py", line 419, in <lambda>\n    self._caller = lambda f: f()\n  File "/home/kunal/Documents/School/Spring/cs183/web2py/applications/TubeVote/controllers/api.py", line 29, in get_update\n    load =json.loads(row.videos)\nAttributeError: \'NoneType\' object has no attribute \'videos\'\n'
p11
s.